target datalayout = "e-m:e-p270:32:32-p271:32:32-p272:64:64-i64:64-i128:128-f80:128-n8:16:32:64-S128"
target triple = "x86_64-pc-linux-gnu"

%union.pthread_mutex_t = type { %struct.__pthread_mutex_s }
%struct.__pthread_mutex_s = type { i32, i32, i32, i32, i32, i16, i16, %struct.__pthread_internal_list }
%struct.__pthread_internal_list = type { ptr, ptr }
%struct.SessionRow = type { i32, i32, [3 x %struct.WOLFSSL_SESSION] }
%struct.WOLFSSL_SESSION = type { i32, i32, %struct.wolfSSL_RefWithMutex, [32 x i8], i8, ptr, i8, i32, i32, [32 x i8], i8, [48 x i8], i16, i8, i8, i16, [20 x i8], i16, i8 }
%struct.wolfSSL_RefWithMutex = type { %union.pthread_mutex_t, i32 }

@session_lock = internal global %union.pthread_mutex_t zeroinitializer, align 8
@SessionCache = internal global [11 x %struct.SessionRow] zeroinitializer, align 16

; Function Attrs: inlinehint nounwind uwtable
define internal void @ForceZero(ptr noundef %0, i32 noundef %1) #4 {
  %3 = alloca ptr, align 8
  %4 = alloca i32, align 4
  %5 = alloca ptr, align 8
  %6 = alloca ptr, align 8
  %7 = alloca i32, align 4
  store ptr %0, ptr %3, align 8, !tbaa !3
  store i32 %1, ptr %4, align 4, !tbaa !7
  call void @llvm.lifetime.start.p0(i64 8, ptr %5) #9
  %8 = load ptr, ptr %3, align 8, !tbaa !3
  store ptr %8, ptr %5, align 8, !tbaa !21
  call void @llvm.lifetime.start.p0(i64 8, ptr %6) #9
  call void @llvm.lifetime.start.p0(i64 4, ptr %7) #9
  %9 = load ptr, ptr %5, align 8, !tbaa !21
  %10 = ptrtoint ptr %9 to i64
  %11 = and i64 %10, 7
  %12 = sub i64 8, %11
  %13 = and i64 %12, 7
  %14 = trunc i64 %13 to i32
  store i32 %14, ptr %7, align 4, !tbaa !7
  %15 = load i32, ptr %4, align 4, !tbaa !7
  %16 = load i32, ptr %7, align 4, !tbaa !7
  %17 = icmp ult i32 %15, %16
  br i1 %17, label %18, label %20

18:                                               ; preds = %2
  %19 = load i32, ptr %4, align 4, !tbaa !7
  store i32 %19, ptr %7, align 4, !tbaa !7
  br label %20

20:                                               ; preds = %18, %2
  %21 = load i32, ptr %7, align 4, !tbaa !7
  %22 = load i32, ptr %4, align 4, !tbaa !7
  %23 = sub i32 %22, %21
  store i32 %23, ptr %4, align 4, !tbaa !7
  br label %24

24:                                               ; preds = %28, %20
  %25 = load i32, ptr %7, align 4, !tbaa !7
  %26 = add i32 %25, -1
  store i32 %26, ptr %7, align 4, !tbaa !7
  %27 = icmp ne i32 %25, 0
  br i1 %27, label %28, label %31

28:                                               ; preds = %24
  %29 = load ptr, ptr %5, align 8, !tbaa !21
  %30 = getelementptr inbounds nuw i8, ptr %29, i32 1
  store ptr %30, ptr %5, align 8, !tbaa !21
  store volatile i8 0, ptr %29, align 1, !tbaa !20
  br label %24, !llvm.loop !57

31:                                               ; preds = %24
  %32 = load ptr, ptr %5, align 8, !tbaa !21
  store ptr %32, ptr %6, align 8, !tbaa !51
  br label %33

33:                                               ; preds = %40, %31
  %34 = load i32, ptr %4, align 4, !tbaa !7
  %35 = zext i32 %34 to i64
  %36 = icmp uge i64 %35, 8
  br i1 %36, label %37, label %43

37:                                               ; preds = %33
  %38 = load ptr, ptr %6, align 8, !tbaa !51
  %39 = getelementptr inbounds nuw i64, ptr %38, i32 1
  store ptr %39, ptr %6, align 8, !tbaa !51
  store volatile i64 0, ptr %38, align 8, !tbaa !22
  br label %40

40:                                               ; preds = %37
  %41 = load i32, ptr %4, align 4, !tbaa !7
  %42 = sub i32 %41, 8
  store i32 %42, ptr %4, align 4, !tbaa !7
  br label %33, !llvm.loop !59

43:                                               ; preds = %33
  %44 = load ptr, ptr %6, align 8, !tbaa !51
  store ptr %44, ptr %5, align 8, !tbaa !21
  br label %45

45:                                               ; preds = %49, %43
  %46 = load i32, ptr %4, align 4, !tbaa !7
  %47 = add i32 %46, -1
  store i32 %47, ptr %4, align 4, !tbaa !7
  %48 = icmp ne i32 %46, 0
  br i1 %48, label %49, label %52

49:                                               ; preds = %45
  %50 = load ptr, ptr %5, align 8, !tbaa !21
  %51 = getelementptr inbounds nuw i8, ptr %50, i32 1
  store ptr %51, ptr %5, align 8, !tbaa !21
  store volatile i8 0, ptr %50, align 1, !tbaa !20
  br label %45, !llvm.loop !60

52:                                               ; preds = %45
  call void @llvm.lifetime.end.p0(i64 4, ptr %7) #9
  call void @llvm.lifetime.end.p0(i64 8, ptr %6) #9
  call void @llvm.lifetime.end.p0(i64 8, ptr %5) #9
  ret void
}

; Function Attrs: nounwind uwtable
define void @EvictSessionFromCache(ptr noundef %0) #0 {
  %2 = alloca ptr, align 8
  store ptr %0, ptr %2, align 8, !tbaa !53
  %3 = load ptr, ptr %2, align 8, !tbaa !53
  %4 = getelementptr inbounds nuw %struct.WOLFSSL_SESSION, ptr %3, i32 0, i32 11
  %5 = getelementptr inbounds [48 x i8], ptr %4, i64 0, i64 0
  call void @ForceZero(ptr noundef %5, i32 noundef 48)
  %6 = load ptr, ptr %2, align 8, !tbaa !53
  %7 = getelementptr inbounds nuw %struct.WOLFSSL_SESSION, ptr %6, i32 0, i32 9
  %8 = getelementptr inbounds [32 x i8], ptr %7, i64 0, i64 0
  call void @llvm.memset.p0.i64(ptr align 4 %8, i8 0, i64 32, i1 false)
  %9 = load ptr, ptr %2, align 8, !tbaa !53
  %10 = getelementptr inbounds nuw %struct.WOLFSSL_SESSION, ptr %9, i32 0, i32 10
  store i8 0, ptr %10, align 4, !tbaa !55
  ret void
}

; Function Attrs: nounwind uwtable
define void @wolfSSL_CTX_flush_sessions(ptr noundef %0, i64 noundef %1) #0 {
  %3 = alloca ptr, align 8
  %4 = alloca i64, align 8
  %5 = alloca i32, align 4
  %6 = alloca i32, align 4
  %7 = alloca i32, align 4
  %8 = alloca ptr, align 8
  store ptr %0, ptr %3, align 8, !tbaa !24
  store i64 %1, ptr %4, align 8, !tbaa !22
  call void @llvm.lifetime.start.p0(i64 4, ptr %5) #9
  call void @llvm.lifetime.start.p0(i64 4, ptr %6) #9
  br label %9

9:                                                ; preds = %2
  br label %10

10:                                               ; preds = %9
  br label %11

11:                                               ; preds = %10
  store i32 0, ptr %5, align 4, !tbaa !7
  br label %12

12:                                               ; preds = %58, %11
  %13 = load i32, ptr %5, align 4, !tbaa !7
  %14 = icmp slt i32 %13, 11
  br i1 %14, label %15, label %61

15:                                               ; preds = %12
  %16 = call i32 @wc_LockRwLock_Wr(ptr noundef @session_lock)
  %17 = icmp ne i32 %16, 0
  br i1 %17, label %18, label %22

18:                                               ; preds = %15
  br label %19

19:                                               ; preds = %18
  br label %20

20:                                               ; preds = %19
  br label %21

21:                                               ; preds = %20
  store i32 1, ptr %7, align 4
  br label %62

22:                                               ; preds = %15
  store i32 0, ptr %6, align 4, !tbaa !7
  br label %23

23:                                               ; preds = %53, %22
  %24 = load i32, ptr %6, align 4, !tbaa !7
  %25 = icmp slt i32 %24, 3
  br i1 %25, label %26, label %56

26:                                               ; preds = %23
  call void @llvm.lifetime.start.p0(i64 8, ptr %8) #9
  %27 = load i32, ptr %5, align 4, !tbaa !7
  %28 = sext i32 %27 to i64
  %29 = getelementptr inbounds [11 x %struct.SessionRow], ptr @SessionCache, i64 0, i64 %28
  %30 = getelementptr inbounds nuw %struct.SessionRow, ptr %29, i32 0, i32 2
  %31 = load i32, ptr %6, align 4, !tbaa !7
  %32 = sext i32 %31 to i64
  %33 = getelementptr inbounds [3 x %struct.WOLFSSL_SESSION], ptr %30, i64 0, i64 %32
  store ptr %33, ptr %8, align 8, !tbaa !53
  %34 = load ptr, ptr %8, align 8, !tbaa !53
  %35 = getelementptr inbounds nuw %struct.WOLFSSL_SESSION, ptr %34, i32 0, i32 10
  %36 = load i8, ptr %35, align 4, !tbaa !55
  %37 = zext i8 %36 to i32
  %38 = icmp sgt i32 %37, 0
  br i1 %38, label %39, label %52

39:                                               ; preds = %26
  %40 = load ptr, ptr %8, align 8, !tbaa !53
  %41 = getelementptr inbounds nuw %struct.WOLFSSL_SESSION, ptr %40, i32 0, i32 7
  %42 = load i32, ptr %41, align 4, !tbaa !108
  %43 = load ptr, ptr %8, align 8, !tbaa !53
  %44 = getelementptr inbounds nuw %struct.WOLFSSL_SESSION, ptr %43, i32 0, i32 8
  %45 = load i32, ptr %44, align 8, !tbaa !109
  %46 = add i32 %42, %45
  %47 = load i64, ptr %4, align 8, !tbaa !22
  %48 = trunc i64 %47 to i32
  %49 = icmp ult i32 %46, %48
  br i1 %49, label %50, label %52

50:                                               ; preds = %39
  %51 = load ptr, ptr %8, align 8, !tbaa !53
  call void @EvictSessionFromCache(ptr noundef %51)
  br label %52

52:                                               ; preds = %50, %39, %26
  call void @llvm.lifetime.end.p0(i64 8, ptr %8) #9
  br label %53

53:                                               ; preds = %52
  %54 = load i32, ptr %6, align 4, !tbaa !7
  %55 = add nsw i32 %54, 1
  store i32 %55, ptr %6, align 4, !tbaa !7
  br label %23, !llvm.loop !122

56:                                               ; preds = %23
  %57 = call i32 @wc_UnLockRwLock(ptr noundef @session_lock)
  br label %58

58:                                               ; preds = %56
  %59 = load i32, ptr %5, align 4, !tbaa !7
  %60 = add nsw i32 %59, 1
  store i32 %60, ptr %5, align 4, !tbaa !7
  br label %12, !llvm.loop !123

61:                                               ; preds = %12
  store i32 0, ptr %7, align 4
  br label %62

62:                                               ; preds = %61, %21
  call void @llvm.lifetime.end.p0(i64 4, ptr %6) #9
  call void @llvm.lifetime.end.p0(i64 4, ptr %5) #9
  %63 = load i32, ptr %7, align 4
  switch i32 %63, label %65 [
    i32 0, label %64
    i32 1, label %64
  ]

64:                                               ; preds = %62, %62
  ret void

65:                                               ; preds = %62
  unreachable
}