; Function Attrs: nounwind uwtable
define void @wolfSSL_CTX_flush_sessions(ptr noundef readnone captures(none) %0, i64 noundef %1) local_unnamed_addr #0 {
  %3 = trunc i64 %1 to i32
  br label %4

4:                                                ; preds = %2, %32
  %indvars.iv19 = phi i64 [ 0, %2 ], [ %indvars.iv.next20, %32 ]
  %5 = tail call i32 @wc_LockRwLock_Wr(ptr noundef nonnull @session_lock) #22
  %.not = icmp eq i32 %5, 0
  br i1 %.not, label %.preheader, label %34

.preheader:                                       ; preds = %4, %31
  %indvars.iv = phi i64 [ %indvars.iv.next, %31 ], [ 0, %4 ]
  %6 = getelementptr inbounds nuw [11 x %struct.SessionRow], ptr @SessionCache, i64 0, i64 %indvars.iv19, i32 2, i64 %indvars.iv
  %7 = getelementptr inbounds nuw i8, ptr %6, i64 148
  %8 = load i8, ptr %7, align 4, !tbaa !77
  %.not11 = icmp eq i8 %8, 0
  br i1 %.not11, label %31, label %9

9:                                                ; preds = %.preheader
  %10 = getelementptr inbounds nuw i8, ptr %6, i64 108
  %11 = load i32, ptr %10, align 4, !tbaa !89
  %12 = getelementptr inbounds nuw i8, ptr %6, i64 112
  %13 = load i32, ptr %12, align 8, !tbaa !90
  %14 = add i32 %13, %11
  %15 = icmp ult i32 %14, %3
  br i1 %15, label %16, label %31

16:                                               ; preds = %9
  %17 = getelementptr inbounds nuw i8, ptr %6, i64 149
  %18 = ptrtoint ptr %17 to i64
  %19 = trunc i64 %18 to i32
  %20 = sub nsw i32 0, %19
  %21 = and i32 %20, 7
  %22 = sub nuw nsw i32 48, %21
  %.not24.i.i = icmp eq i32 %21, 0
  br i1 %.not24.i.i, label %.lr.ph29.i.i.preheader, label %.lr.ph.i.i

.lr.ph.i.i:                                       ; preds = %16, %.lr.ph.i.i
  %.126.i.i = phi i32 [ %23, %.lr.ph.i.i ], [ %21, %16 ]
  %.01625.i.i = phi ptr [ %24, %.lr.ph.i.i ], [ %17, %16 ]
  %23 = add nsw i32 %.126.i.i, -1
  %24 = getelementptr inbounds nuw i8, ptr %.01625.i.i, i64 1
  store volatile i8 0, ptr %.01625.i.i, align 1, !tbaa !43
  %.not.i.i = icmp eq i32 %23, 0
  br i1 %.not.i.i, label %.lr.ph29.i.i.preheader, label %.lr.ph.i.i, !llvm.loop !44

.lr.ph29.i.i.preheader:                           ; preds = %.lr.ph.i.i, %16
  %.01528.i.i.ph = phi ptr [ %17, %16 ], [ %24, %.lr.ph.i.i ]
  br label %.lr.ph29.i.i

.lr.ph29.i.i:                                     ; preds = %.lr.ph29.i.i.preheader, %.lr.ph29.i.i
  %.01528.i.i = phi ptr [ %25, %.lr.ph29.i.i ], [ %.01528.i.i.ph, %.lr.ph29.i.i.preheader ]
  %.01827.i.i = phi i32 [ %26, %.lr.ph29.i.i ], [ %22, %.lr.ph29.i.i.preheader ]
  %25 = getelementptr inbounds nuw i8, ptr %.01528.i.i, i64 8
  store volatile i64 0, ptr %.01528.i.i, align 8, !tbaa !27
  %26 = add nsw i32 %.01827.i.i, -8
  %27 = icmp ugt i32 %26, 7
  br i1 %27, label %.lr.ph29.i.i, label %.lr.ph35.i.i, !llvm.loop !45

.lr.ph35.i.i:                                     ; preds = %.lr.ph29.i.i, %.lr.ph35.i.i
  %.11734.i.i = phi ptr [ %29, %.lr.ph35.i.i ], [ %25, %.lr.ph29.i.i ]
  %.11933.i.i = phi i32 [ %28, %.lr.ph35.i.i ], [ 5, %.lr.ph29.i.i ]
  %28 = add nsw i32 %.11933.i.i, -1
  %29 = getelementptr inbounds nuw i8, ptr %.11734.i.i, i64 1
  store volatile i8 0, ptr %.11734.i.i, align 1, !tbaa !43
  %.not22.i.i = icmp eq i32 %28, 0
  br i1 %.not22.i.i, label %EvictSessionFromCache.exit, label %.lr.ph35.i.i, !llvm.loop !46

EvictSessionFromCache.exit:                       ; preds = %.lr.ph35.i.i
  %30 = getelementptr inbounds nuw i8, ptr %6, i64 116
  tail call void @llvm.memset.p0.i64(ptr noundef nonnull align 4 dereferenceable(33) %30, i8 0, i64 33, i1 false)
  br label %31

31:                                               ; preds = %EvictSessionFromCache.exit, %9, %.preheader
  %indvars.iv.next = add nuw nsw i64 %indvars.iv, 1
  %exitcond.not = icmp eq i64 %indvars.iv.next, 3
  br i1 %exitcond.not, label %32, label %.preheader, !llvm.loop !104

32:                                               ; preds = %31
  %33 = tail call i32 @wc_UnLockRwLock(ptr noundef nonnull @session_lock) #22
  %indvars.iv.next20 = add nuw nsw i64 %indvars.iv19, 1
  %exitcond22.not = icmp eq i64 %indvars.iv.next20, 11
  br i1 %exitcond22.not, label %34, label %4, !llvm.loop !105

34:                                               ; preds = %32, %4
  ret void
}